target datalayout = "e-m:e-p270:32:32-p271:32:32-p272:64:64-i64:64-i128:128-f80:128-n8:16:32:64-S128"
target triple = "x86_64-pc-linux-gnu"

%struct._object = type { %union.anon, ptr }
%union.anon = type { i64 }
%struct.Py_buffer = type { ptr, ptr, i64, i64, i32, i32, ptr, ptr, ptr, ptr, ptr }
%struct.PyStructObject = type { %struct._object, i64, i64, ptr, ptr, ptr }
%struct.unpackiterobject = type { %struct._object, ptr, %struct.Py_buffer, i64 }

; Function Attrs: nounwind uwtable
define internal ptr @unpackiter_len(ptr noundef %0, ptr noundef %1) #0 {
  %3 = alloca ptr, align 8
  %4 = alloca ptr, align 8
  %5 = alloca i64, align 8
  store ptr %0, ptr %3, align 8, !tbaa !8
  store ptr %1, ptr %4, align 8, !tbaa !3
  call void @llvm.lifetime.start.p0(i64 8, ptr %5) #8
  %6 = load ptr, ptr %3, align 8, !tbaa !8
  %7 = getelementptr inbounds nuw %struct.unpackiterobject, ptr %6, i32 0, i32 1
  %8 = load ptr, ptr %7, align 8, !tbaa !39
  %9 = icmp eq ptr %8, null
  br i1 %9, label %10, label %11

10:                                               ; preds = %2
  store i64 0, ptr %5, align 8, !tbaa !18
  br label %26

11:                                               ; preds = %2
  %12 = load ptr, ptr %3, align 8, !tbaa !8
  %13 = getelementptr inbounds nuw %struct.unpackiterobject, ptr %12, i32 0, i32 2
  %14 = getelementptr inbounds nuw %struct.Py_buffer, ptr %13, i32 0, i32 2
  %15 = load i64, ptr %14, align 8, !tbaa !37
  %16 = load ptr, ptr %3, align 8, !tbaa !8
  %17 = getelementptr inbounds nuw %struct.unpackiterobject, ptr %16, i32 0, i32 3
  %18 = load i64, ptr %17, align 8, !tbaa !40
  %19 = sub i64 %15, %18
  %20 = load ptr, ptr %3, align 8, !tbaa !8
  %21 = getelementptr inbounds nuw %struct.unpackiterobject, ptr %20, i32 0, i32 1
  %22 = load ptr, ptr %21, align 8, !tbaa !39
  %23 = getelementptr inbounds nuw %struct.PyStructObject, ptr %22, i32 0, i32 1
  %24 = load i64, ptr %23, align 8, !tbaa !29
  %25 = sdiv i64 %19, %24
  store i64 %25, ptr %5, align 8, !tbaa !18
  br label %26

26:                                               ; preds = %11, %10
  %27 = load i64, ptr %5, align 8, !tbaa !18
  %28 = call ptr @PyLong_FromSsize_t(i64 noundef %27)
  call void @llvm.lifetime.end.p0(i64 8, ptr %5) #8
  ret ptr %28
}