; Function Attrs: nounwind uwtable
define internal ptr @unpackiter_len(ptr noundef readonly captures(none) %0, ptr readnone captures(none) %1) #0 {
  %3 = getelementptr inbounds nuw i8, ptr %0, i64 16
  %4 = load ptr, ptr %3, align 8, !tbaa !40
  %5 = icmp eq ptr %4, null
  br i1 %5, label %15, label %6

6:                                                ; preds = %2
  %7 = getelementptr inbounds nuw i8, ptr %0, i64 40
  %8 = load i64, ptr %7, align 8, !tbaa !38
  %9 = getelementptr inbounds nuw i8, ptr %0, i64 104
  %10 = load i64, ptr %9, align 8, !tbaa !41
  %11 = sub i64 %8, %10
  %12 = getelementptr inbounds nuw i8, ptr %4, i64 16
  %13 = load i64, ptr %12, align 8, !tbaa !20
  %14 = sdiv i64 %11, %13
  br label %15

15:                                               ; preds = %2, %6
  %.0 = phi i64 [ %14, %6 ], [ 0, %2 ]
  %16 = tail call ptr @PyLong_FromSsize_t(i64 noundef %.0) #7
  ret ptr %16
}